target datalayout = "e-m:e-p270:32:32-p271:32:32-p272:64:64-i64:64-i128:128-f80:128-n8:16:32:64-S128"
target triple = "x86_64-pc-linux-gnu"

; Function Attrs: nounwind uwtable
define ptr @h5tools_str_replace(ptr noundef %0, ptr noundef %1, ptr noundef %2) #0 {
  %4 = alloca ptr, align 8
  %5 = alloca ptr, align 8
  %6 = alloca ptr, align 8
  %7 = alloca ptr, align 8
  %8 = alloca ptr, align 8
  %9 = alloca ptr, align 8
  %10 = alloca ptr, align 8
  %11 = alloca i32, align 4
  %12 = alloca ptr, align 8
  store ptr %0, ptr %5, align 8, !tbaa !14
  store ptr %1, ptr %6, align 8, !tbaa !14
  store ptr %2, ptr %7, align 8, !tbaa !14
  call void @llvm.lifetime.start.p0(i64 8, ptr %8) #12
  store ptr null, ptr %8, align 8, !tbaa !14
  call void @llvm.lifetime.start.p0(i64 8, ptr %9) #12
  store ptr null, ptr %9, align 8, !tbaa !14
  call void @llvm.lifetime.start.p0(i64 8, ptr %10) #12
  store ptr null, ptr %10, align 8, !tbaa !14
  %13 = load ptr, ptr %6, align 8, !tbaa !14
  %14 = icmp eq ptr %13, null
  br i1 %14, label %18, label %15

15:                                               ; preds = %3
  %16 = load ptr, ptr %7, align 8, !tbaa !14
  %17 = icmp eq ptr %16, null
  br i1 %17, label %18, label %21

18:                                               ; preds = %15, %3
  %19 = load ptr, ptr %5, align 8, !tbaa !14
  %20 = call noalias ptr @strdup(ptr noundef %19) #12
  store ptr %20, ptr %4, align 8
  store i32 1, ptr %11, align 4
  br label %116

21:                                               ; preds = %15
  %22 = load ptr, ptr %5, align 8, !tbaa !14
  %23 = call noalias ptr @strdup(ptr noundef %22) #12
  store ptr %23, ptr %9, align 8, !tbaa !14
  %24 = load ptr, ptr %9, align 8, !tbaa !14
  store ptr %24, ptr %10, align 8, !tbaa !14
  br label %25

25:                                               ; preds = %113, %21
  %26 = load ptr, ptr %10, align 8, !tbaa !14
  %27 = load ptr, ptr %6, align 8, !tbaa !14
  %28 = call ptr @strstr(ptr noundef %26, ptr noundef %27) #13
  store ptr %28, ptr %8, align 8, !tbaa !14
  %29 = icmp ne ptr %28, null
  br i1 %29, label %30, label %114

30:                                               ; preds = %25
  call void @llvm.lifetime.start.p0(i64 8, ptr %12) #12
  %31 = load ptr, ptr %9, align 8, !tbaa !14
  store ptr %31, ptr %12, align 8, !tbaa !14
  %32 = load ptr, ptr %12, align 8, !tbaa !14
  %33 = call i64 @strlen(ptr noundef %32) #13
  %34 = load ptr, ptr %6, align 8, !tbaa !14
  %35 = call i64 @strlen(ptr noundef %34) #13
  %36 = sub i64 %33, %35
  %37 = load ptr, ptr %7, align 8, !tbaa !14
  %38 = call i64 @strlen(ptr noundef %37) #13
  %39 = add i64 %36, %38
  %40 = add i64 %39, 1
  %41 = call noalias ptr @malloc(i64 noundef %40) #15
  store ptr %41, ptr %9, align 8, !tbaa !14
  %42 = load ptr, ptr %9, align 8, !tbaa !14
  %43 = icmp eq ptr %42, null
  br i1 %43, label %44, label %46

44:                                               ; preds = %30
  %45 = load ptr, ptr %12, align 8, !tbaa !14
  call void @free(ptr noundef %45) #12
  store ptr null, ptr %4, align 8
  store i32 1, ptr %11, align 4
  br label %111

46:                                               ; preds = %30
  %47 = load ptr, ptr %9, align 8, !tbaa !14
  %48 = load ptr, ptr %12, align 8, !tbaa !14
  %49 = load ptr, ptr %8, align 8, !tbaa !14
  %50 = load ptr, ptr %12, align 8, !tbaa !14
  %51 = ptrtoint ptr %49 to i64
  %52 = ptrtoint ptr %50 to i64
  %53 = sub i64 %51, %52
  call void @llvm.memcpy.p0.p0.i64(ptr align 1 %47, ptr align 1 %48, i64 %53, i1 false)
  %54 = load ptr, ptr %9, align 8, !tbaa !14
  %55 = load ptr, ptr %8, align 8, !tbaa !14
  %56 = load ptr, ptr %12, align 8, !tbaa !14
  %57 = ptrtoint ptr %55 to i64
  %58 = ptrtoint ptr %56 to i64
  %59 = sub i64 %57, %58
  %60 = getelementptr inbounds i8, ptr %54, i64 %59
  %61 = load ptr, ptr %7, align 8, !tbaa !14
  %62 = load ptr, ptr %7, align 8, !tbaa !14
  %63 = call i64 @strlen(ptr noundef %62) #13
  call void @llvm.memcpy.p0.p0.i64(ptr align 1 %60, ptr align 1 %61, i64 %63, i1 false)
  %64 = load ptr, ptr %9, align 8, !tbaa !14
  %65 = load ptr, ptr %8, align 8, !tbaa !14
  %66 = load ptr, ptr %12, align 8, !tbaa !14
  %67 = ptrtoint ptr %65 to i64
  %68 = ptrtoint ptr %66 to i64
  %69 = sub i64 %67, %68
  %70 = getelementptr inbounds i8, ptr %64, i64 %69
  %71 = load ptr, ptr %7, align 8, !tbaa !14
  %72 = call i64 @strlen(ptr noundef %71) #13
  %73 = getelementptr inbounds nuw i8, ptr %70, i64 %72
  %74 = load ptr, ptr %8, align 8, !tbaa !14
  %75 = load ptr, ptr %6, align 8, !tbaa !14
  %76 = call i64 @strlen(ptr noundef %75) #13
  %77 = getelementptr inbounds nuw i8, ptr %74, i64 %76
  %78 = load ptr, ptr %12, align 8, !tbaa !14
  %79 = call i64 @strlen(ptr noundef %78) #13
  %80 = load ptr, ptr %6, align 8, !tbaa !14
  %81 = call i64 @strlen(ptr noundef %80) #13
  %82 = sub i64 %79, %81
  %83 = load ptr, ptr %8, align 8, !tbaa !14
  %84 = load ptr, ptr %12, align 8, !tbaa !14
  %85 = ptrtoint ptr %83 to i64
  %86 = ptrtoint ptr %84 to i64
  %87 = sub i64 %85, %86
  %88 = sub i64 %82, %87
  call void @llvm.memcpy.p0.p0.i64(ptr align 1 %73, ptr align 1 %77, i64 %88, i1 false)
  %89 = load ptr, ptr %9, align 8, !tbaa !14
  %90 = load ptr, ptr %12, align 8, !tbaa !14
  %91 = call i64 @strlen(ptr noundef %90) #13
  %92 = getelementptr inbounds nuw i8, ptr %89, i64 %91
  %93 = load ptr, ptr %6, align 8, !tbaa !14
  %94 = call i64 @strlen(ptr noundef %93) #13
  %95 = sub i64 0, %94
  %96 = getelementptr inbounds i8, ptr %92, i64 %95
  %97 = load ptr, ptr %7, align 8, !tbaa !14
  %98 = call i64 @strlen(ptr noundef %97) #13
  %99 = getelementptr inbounds nuw i8, ptr %96, i64 %98
  call void @llvm.memset.p0.i64(ptr align 1 %99, i8 0, i64 1, i1 false)
  %100 = load ptr, ptr %9, align 8, !tbaa !14
  %101 = load ptr, ptr %8, align 8, !tbaa !14
  %102 = load ptr, ptr %12, align 8, !tbaa !14
  %103 = ptrtoint ptr %101 to i64
  %104 = ptrtoint ptr %102 to i64
  %105 = sub i64 %103, %104
  %106 = getelementptr inbounds i8, ptr %100, i64 %105
  %107 = load ptr, ptr %7, align 8, !tbaa !14
  %108 = call i64 @strlen(ptr noundef %107) #13
  %109 = getelementptr inbounds nuw i8, ptr %106, i64 %108
  store ptr %109, ptr %10, align 8, !tbaa !14
  %110 = load ptr, ptr %12, align 8, !tbaa !14
  call void @free(ptr noundef %110) #12
  store i32 0, ptr %11, align 4
  br label %111

111:                                              ; preds = %46, %44
  call void @llvm.lifetime.end.p0(i64 8, ptr %12) #12
  %112 = load i32, ptr %11, align 4
  switch i32 %112, label %116 [
    i32 0, label %113
  ]

113:                                              ; preds = %111
  br label %25, !llvm.loop !139

114:                                              ; preds = %25
  %115 = load ptr, ptr %9, align 8, !tbaa !14
  store ptr %115, ptr %4, align 8
  store i32 1, ptr %11, align 4
  br label %116

116:                                              ; preds = %114, %111, %18
  call void @llvm.lifetime.end.p0(i64 8, ptr %10) #12
  call void @llvm.lifetime.end.p0(i64 8, ptr %9) #12
  call void @llvm.lifetime.end.p0(i64 8, ptr %8) #12
  %117 = load ptr, ptr %4, align 8
  ret ptr %117
}