; Function Attrs: nounwind uwtable
define ptr @h5tools_str_replace(ptr noundef readonly captures(none) %0, ptr noundef readonly captures(address_is_null) %1, ptr noundef readonly captures(address_is_null) %2) local_unnamed_addr #4 {
  %4 = icmp eq ptr %1, null
  %5 = icmp eq ptr %2, null
  %or.cond = or i1 %4, %5
  %6 = tail call noalias ptr @strdup(ptr noundef %0) #21
  br i1 %or.cond, label %.loopexit, label %7

7:                                                ; preds = %3
  %8 = tail call ptr @strstr(ptr noundef nonnull dereferenceable(1) %6, ptr noundef nonnull dereferenceable(1) %1) #24
  %.not58 = icmp eq ptr %8, null
  br i1 %.not58, label %.loopexit, label %.lr.ph

.lr.ph:                                           ; preds = %7, %17
  %9 = phi ptr [ %32, %17 ], [ %8, %7 ]
  %.04759 = phi ptr [ %16, %17 ], [ %6, %7 ]
  %10 = tail call i64 @strlen(ptr noundef nonnull dereferenceable(1) %.04759) #24
  %11 = tail call i64 @strlen(ptr noundef nonnull dereferenceable(1) %1) #24
  %12 = tail call i64 @strlen(ptr noundef nonnull dereferenceable(1) %2) #24
  %13 = add i64 %10, 1
  %14 = sub i64 %13, %11
  %15 = add i64 %14, %12
  %16 = tail call noalias ptr @malloc(i64 noundef %15) #22
  %.not52 = icmp eq ptr %16, null
  br i1 %.not52, label %.thread, label %17

.thread:                                          ; preds = %.lr.ph
  tail call void @free(ptr noundef nonnull %.04759) #21
  br label %.loopexit

17:                                               ; preds = %.lr.ph
  %18 = ptrtoint ptr %9 to i64
  %19 = ptrtoint ptr %.04759 to i64
  %20 = sub i64 %18, %19
  tail call void @llvm.memcpy.p0.p0.i64(ptr nonnull align 1 %16, ptr nonnull align 1 %.04759, i64 %20, i1 false)
  %21 = getelementptr inbounds i8, ptr %16, i64 %20
  tail call void @llvm.memcpy.p0.p0.i64(ptr nonnull align 1 %21, ptr nonnull align 1 %2, i64 %12, i1 false)
  %22 = getelementptr inbounds nuw i8, ptr %21, i64 %12
  %23 = getelementptr inbounds nuw i8, ptr %9, i64 %11
  %24 = tail call i64 @strlen(ptr noundef nonnull dereferenceable(1) %.04759) #24
  %25 = add i64 %11, %20
  %26 = sub i64 %24, %25
  tail call void @llvm.memcpy.p0.p0.i64(ptr nonnull align 1 %22, ptr nonnull align 1 %23, i64 %26, i1 false)
  %27 = tail call i64 @strlen(ptr noundef nonnull dereferenceable(1) %.04759) #24
  %28 = getelementptr inbounds nuw i8, ptr %16, i64 %27
  %29 = sub i64 0, %11
  %30 = getelementptr inbounds i8, ptr %28, i64 %29
  %31 = getelementptr inbounds nuw i8, ptr %30, i64 %12
  store i8 0, ptr %31, align 1
  tail call void @free(ptr noundef nonnull %.04759) #21
  %32 = tail call ptr @strstr(ptr noundef nonnull dereferenceable(1) %22, ptr noundef nonnull dereferenceable(1) %1) #24
  %.not = icmp eq ptr %32, null
  br i1 %.not, label %.loopexit, label %.lr.ph, !llvm.loop !122

.loopexit:                                        ; preds = %17, %3, %7, %.thread
  %.0 = phi ptr [ null, %.thread ], [ %6, %7 ], [ %6, %3 ], [ %16, %17 ]
  ret ptr %.0
}